target datalayout = "e-m:e-p270:32:32-p271:32:32-p272:64:64-i64:64-i128:128-f80:128-n8:16:32:64-S128"
target triple = "x86_64-pc-linux-gnu"

%struct.ThreadData = type { ptr, ptr, ptr, i32, i32, float }

; Function Attrs: alwaysinline nounwind willreturn memory(none) uwtable
define internal double @av_clipd_c(double noundef %0, double noundef %1, double noundef %2) #6 {
  %4 = alloca double, align 8
  %5 = alloca double, align 8
  %6 = alloca double, align 8
  store double %0, ptr %4, align 8, !tbaa !85
  store double %1, ptr %5, align 8, !tbaa !85
  store double %2, ptr %6, align 8, !tbaa !85
  %7 = load double, ptr %4, align 8, !tbaa !85
  %8 = load double, ptr %5, align 8, !tbaa !85
  %9 = fcmp nsz ogt double %7, %8
  br i1 %9, label %10, label %12

10:                                               ; preds = %3
  %11 = load double, ptr %4, align 8, !tbaa !85
  br label %14

12:                                               ; preds = %3
  %13 = load double, ptr %5, align 8, !tbaa !85
  br label %14

14:                                               ; preds = %12, %10
  %15 = phi nsz double [ %11, %10 ], [ %13, %12 ]
  %16 = load double, ptr %6, align 8, !tbaa !85
  %17 = fcmp nsz ogt double %15, %16
  br i1 %17, label %18, label %20

18:                                               ; preds = %14
  %19 = load double, ptr %6, align 8, !tbaa !85
  br label %30

20:                                               ; preds = %14
  %21 = load double, ptr %4, align 8, !tbaa !85
  %22 = load double, ptr %5, align 8, !tbaa !85
  %23 = fcmp nsz ogt double %21, %22
  br i1 %23, label %24, label %26

24:                                               ; preds = %20
  %25 = load double, ptr %4, align 8, !tbaa !85
  br label %28

26:                                               ; preds = %20
  %27 = load double, ptr %5, align 8, !tbaa !85
  br label %28

28:                                               ; preds = %26, %24
  %29 = phi nsz double [ %25, %24 ], [ %27, %26 ]
  br label %30

30:                                               ; preds = %28, %18
  %31 = phi nsz double [ %19, %18 ], [ %29, %28 ]
  ret double %31
}

; Function Attrs: nounwind uwtable
define internal i32 @filter_inverse_dbl_clip(ptr noundef %0, ptr noundef %1, i32 noundef %2, i32 noundef %3) #2 {
  %5 = alloca ptr, align 8
  %6 = alloca ptr, align 8
  %7 = alloca i32, align 4
  %8 = alloca i32, align 4
  %9 = alloca ptr, align 8
  %10 = alloca ptr, align 8
  %11 = alloca ptr, align 8
  %12 = alloca ptr, align 8
  %13 = alloca i32, align 4
  %14 = alloca i32, align 4
  %15 = alloca double, align 8
  %16 = alloca double, align 8
  %17 = alloca i32, align 4
  %18 = alloca i32, align 4
  %19 = alloca ptr, align 8
  %20 = alloca i32, align 4
  %21 = alloca i32, align 4
  %22 = alloca ptr, align 8
  %23 = alloca ptr, align 8
  %24 = alloca i32, align 4
  %25 = alloca double, align 8
  store ptr %0, ptr %5, align 8, !tbaa !4
  store ptr %1, ptr %6, align 8, !tbaa !58
  store i32 %2, ptr %7, align 4, !tbaa !61
  store i32 %3, ptr %8, align 4, !tbaa !61
  call void @llvm.lifetime.start.p0(i64 8, ptr %9) #7
  %26 = load ptr, ptr %6, align 8, !tbaa !58
  store ptr %26, ptr %9, align 8, !tbaa !62
  call void @llvm.lifetime.start.p0(i64 8, ptr %10) #7
  %27 = load ptr, ptr %9, align 8, !tbaa !62
  %28 = getelementptr inbounds nuw %struct.ThreadData, ptr %27, i32 0, i32 0
  %29 = load ptr, ptr %28, align 8, !tbaa !47
  store ptr %29, ptr %10, align 8, !tbaa !64
  call void @llvm.lifetime.start.p0(i64 8, ptr %11) #7
  %30 = load ptr, ptr %9, align 8, !tbaa !62
  %31 = getelementptr inbounds nuw %struct.ThreadData, ptr %30, i32 0, i32 1
  %32 = load ptr, ptr %31, align 8, !tbaa !50
  store ptr %32, ptr %11, align 8, !tbaa !64
  call void @llvm.lifetime.start.p0(i64 8, ptr %12) #7
  %33 = load ptr, ptr %9, align 8, !tbaa !62
  %34 = getelementptr inbounds nuw %struct.ThreadData, ptr %33, i32 0, i32 2
  %35 = load ptr, ptr %34, align 8, !tbaa !49
  store ptr %35, ptr %12, align 8, !tbaa !64
  call void @llvm.lifetime.start.p0(i64 4, ptr %13) #7
  %36 = load ptr, ptr %9, align 8, !tbaa !62
  %37 = getelementptr inbounds nuw %struct.ThreadData, ptr %36, i32 0, i32 3
  %38 = load i32, ptr %37, align 8, !tbaa !51
  store i32 %38, ptr %13, align 4, !tbaa !61
  call void @llvm.lifetime.start.p0(i64 4, ptr %14) #7
  %39 = load ptr, ptr %9, align 8, !tbaa !62
  %40 = getelementptr inbounds nuw %struct.ThreadData, ptr %39, i32 0, i32 4
  %41 = load i32, ptr %40, align 4, !tbaa !53
  store i32 %41, ptr %14, align 4, !tbaa !61
  call void @llvm.lifetime.start.p0(i64 8, ptr %15) #7
  %42 = load ptr, ptr %9, align 8, !tbaa !62
  %43 = getelementptr inbounds nuw %struct.ThreadData, ptr %42, i32 0, i32 5
  %44 = load float, ptr %43, align 8, !tbaa !56
  %45 = fpext nsz float %44 to double
  store double %45, ptr %15, align 8, !tbaa !85
  call void @llvm.lifetime.start.p0(i64 8, ptr %16) #7
  %46 = load double, ptr %15, align 8, !tbaa !85
  %47 = fneg nsz double %46
  %48 = fadd nsz double %47, 1.000000e+00
  %49 = fdiv nsz double 1.000000e+00, %48
  store double %49, ptr %16, align 8, !tbaa !85
  call void @llvm.lifetime.start.p0(i64 4, ptr %17) #7
  %50 = load i32, ptr %14, align 4, !tbaa !61
  %51 = load i32, ptr %7, align 4, !tbaa !61
  %52 = mul nsw i32 %50, %51
  %53 = load i32, ptr %8, align 4, !tbaa !61
  %54 = sdiv i32 %52, %53
  store i32 %54, ptr %17, align 4, !tbaa !61
  call void @llvm.lifetime.start.p0(i64 4, ptr %18) #7
  %55 = load i32, ptr %14, align 4, !tbaa !61
  %56 = load i32, ptr %7, align 4, !tbaa !61
  %57 = add nsw i32 %56, 1
  %58 = mul nsw i32 %55, %57
  %59 = load i32, ptr %8, align 4, !tbaa !61
  %60 = sdiv i32 %58, %59
  store i32 %60, ptr %18, align 4, !tbaa !61
  call void @llvm.lifetime.start.p0(i64 8, ptr %19) #7
  %61 = load ptr, ptr %11, align 8, !tbaa !64
  %62 = getelementptr inbounds ptr, ptr %61, i64 0
  %63 = load ptr, ptr %62, align 8, !tbaa !58
  store ptr %63, ptr %19, align 8, !tbaa !87
  call void @llvm.lifetime.start.p0(i64 4, ptr %20) #7
  %64 = load i32, ptr %17, align 4, !tbaa !61
  store i32 %64, ptr %20, align 4, !tbaa !61
  br label %65

65:                                               ; preds = %134, %4
  %66 = load i32, ptr %20, align 4, !tbaa !61
  %67 = load i32, ptr %18, align 4, !tbaa !61
  %68 = icmp slt i32 %66, %67
  br i1 %68, label %70, label %69

69:                                               ; preds = %65
  store i32 2, ptr %21, align 4
  call void @llvm.lifetime.end.p0(i64 4, ptr %20) #7
  br label %137

70:                                               ; preds = %65
  call void @llvm.lifetime.start.p0(i64 8, ptr %22) #7
  %71 = load ptr, ptr %12, align 8, !tbaa !64
  %72 = getelementptr inbounds ptr, ptr %71, i64 0
  %73 = load ptr, ptr %72, align 8, !tbaa !58
  store ptr %73, ptr %22, align 8, !tbaa !87
  call void @llvm.lifetime.start.p0(i64 8, ptr %23) #7
  %74 = load ptr, ptr %10, align 8, !tbaa !64
  %75 = getelementptr inbounds ptr, ptr %74, i64 0
  %76 = load ptr, ptr %75, align 8, !tbaa !58
  store ptr %76, ptr %23, align 8, !tbaa !87
  call void @llvm.lifetime.start.p0(i64 4, ptr %24) #7
  store i32 0, ptr %24, align 4, !tbaa !61
  br label %77

77:                                               ; preds = %130, %70
  %78 = load i32, ptr %24, align 4, !tbaa !61
  %79 = load i32, ptr %13, align 4, !tbaa !61
  %80 = icmp slt i32 %78, %79
  br i1 %80, label %82, label %81

81:                                               ; preds = %77
  store i32 5, ptr %21, align 4
  call void @llvm.lifetime.end.p0(i64 4, ptr %24) #7
  br label %133

82:                                               ; preds = %77
  call void @llvm.lifetime.start.p0(i64 8, ptr %25) #7
  %83 = load ptr, ptr %22, align 8, !tbaa !87
  %84 = load i32, ptr %20, align 4, !tbaa !61
  %85 = sext i32 %84 to i64
  %86 = getelementptr inbounds double, ptr %83, i64 %85
  %87 = load double, ptr %86, align 8, !tbaa !85
  store double %87, ptr %25, align 8, !tbaa !85
  %88 = load double, ptr %25, align 8, !tbaa !85
  %89 = load ptr, ptr %19, align 8, !tbaa !87
  %90 = load i32, ptr %20, align 4, !tbaa !61
  %91 = sext i32 %90 to i64
  %92 = getelementptr inbounds double, ptr %89, i64 %91
  %93 = load double, ptr %92, align 8, !tbaa !85
  %94 = load double, ptr %15, align 8, !tbaa !85
  %95 = fneg nsz double %93
  %96 = call nsz double @llvm.fmuladd.f64(double %95, double %94, double %88)
  %97 = load double, ptr %16, align 8, !tbaa !85
  %98 = fmul nsz double %96, %97
  %99 = load ptr, ptr %23, align 8, !tbaa !87
  %100 = load i32, ptr %20, align 4, !tbaa !61
  %101 = sext i32 %100 to i64
  %102 = getelementptr inbounds double, ptr %99, i64 %101
  store double %98, ptr %102, align 8, !tbaa !85
  %103 = load ptr, ptr %23, align 8, !tbaa !87
  %104 = load i32, ptr %20, align 4, !tbaa !61
  %105 = sext i32 %104 to i64
  %106 = getelementptr inbounds double, ptr %103, i64 %105
  %107 = load double, ptr %106, align 8, !tbaa !85
  %108 = load ptr, ptr %19, align 8, !tbaa !87
  %109 = load i32, ptr %20, align 4, !tbaa !61
  %110 = sext i32 %109 to i64
  %111 = getelementptr inbounds double, ptr %108, i64 %110
  store double %107, ptr %111, align 8, !tbaa !85
  %112 = load ptr, ptr %23, align 8, !tbaa !87
  %113 = load i32, ptr %20, align 4, !tbaa !61
  %114 = sext i32 %113 to i64
  %115 = getelementptr inbounds double, ptr %112, i64 %114
  %116 = load double, ptr %115, align 8, !tbaa !85
  %117 = call nsz double @av_clipd_c(double noundef %116, double noundef -1.000000e+00, double noundef 1.000000e+00) #9
  %118 = load ptr, ptr %23, align 8, !tbaa !87
  %119 = load i32, ptr %20, align 4, !tbaa !61
  %120 = sext i32 %119 to i64
  %121 = getelementptr inbounds double, ptr %118, i64 %120
  store double %117, ptr %121, align 8, !tbaa !85
  %122 = load i32, ptr %14, align 4, !tbaa !61
  %123 = load ptr, ptr %23, align 8, !tbaa !87
  %124 = sext i32 %122 to i64
  %125 = getelementptr inbounds double, ptr %123, i64 %124
  store ptr %125, ptr %23, align 8, !tbaa !87
  %126 = load i32, ptr %14, align 4, !tbaa !61
  %127 = load ptr, ptr %22, align 8, !tbaa !87
  %128 = sext i32 %126 to i64
  %129 = getelementptr inbounds double, ptr %127, i64 %128
  store ptr %129, ptr %22, align 8, !tbaa !87
  call void @llvm.lifetime.end.p0(i64 8, ptr %25) #7
  br label %130

130:                                              ; preds = %82
  %131 = load i32, ptr %24, align 4, !tbaa !61
  %132 = add nsw i32 %131, 1
  store i32 %132, ptr %24, align 4, !tbaa !61
  br label %77, !llvm.loop !92

133:                                              ; preds = %81
  call void @llvm.lifetime.end.p0(i64 8, ptr %23) #7
  call void @llvm.lifetime.end.p0(i64 8, ptr %22) #7
  br label %134

134:                                              ; preds = %133
  %135 = load i32, ptr %20, align 4, !tbaa !61
  %136 = add nsw i32 %135, 1
  store i32 %136, ptr %20, align 4, !tbaa !61
  br label %65, !llvm.loop !93

137:                                              ; preds = %69
  call void @llvm.lifetime.end.p0(i64 8, ptr %19) #7
  store i32 1, ptr %21, align 4
  call void @llvm.lifetime.end.p0(i64 4, ptr %18) #7
  call void @llvm.lifetime.end.p0(i64 4, ptr %17) #7
  call void @llvm.lifetime.end.p0(i64 8, ptr %16) #7
  call void @llvm.lifetime.end.p0(i64 8, ptr %15) #7
  call void @llvm.lifetime.end.p0(i64 4, ptr %14) #7
  call void @llvm.lifetime.end.p0(i64 4, ptr %13) #7
  call void @llvm.lifetime.end.p0(i64 8, ptr %12) #7
  call void @llvm.lifetime.end.p0(i64 8, ptr %11) #7
  call void @llvm.lifetime.end.p0(i64 8, ptr %10) #7
  call void @llvm.lifetime.end.p0(i64 8, ptr %9) #7
  ret i32 0
}